; Function Attrs: null_pointer_is_valid sspstrong uwtable
define internal void @dissect_smc_initialize_element_status(ptr noundef %0, ptr readnone captures(none) %1, ptr noundef %2, i32 noundef %3, i1 noundef zeroext %4, i1 noundef zeroext %5, i32 %6, ptr readnone captures(none) %7) #0 {
  %.not = icmp ne ptr %2, null
  %9 = and i1 %4, %5
  %brmerge7.not = and i1 %.not, %9
  br i1 %brmerge7.not, label %10, label %15

10:                                               ; preds = %8
  %11 = add i32 %3, 4
  %12 = load i32, ptr @hf_scsi_control, align 4
  %13 = load i32, ptr @ett_scsi_control, align 4
  %14 = tail call ptr @proto_tree_add_bitmask(ptr noundef nonnull %2, ptr noundef %0, i32 noundef %11, i32 noundef %12, i32 noundef %13, ptr noundef nonnull @cdb_control_fields, i32 noundef 0)
  br label %15

15:                                               ; preds = %8, %10
  ret void
}